target datalayout = "e-m:e-p270:32:32-p271:32:32-p272:64:64-i64:64-i128:128-f80:128-n8:16:32:64-S128"
target triple = "x86_64-pc-linux-gnu"

%struct.BiquadsContext = type { ptr, i32, i32, i32, i32, i32, i32, i32, i32, double, double, double, double, ptr, %struct.AVChannelLayout, i32, i32, [3 x double], [3 x double], [3 x float], [3 x float], [3 x double], [3 x double], [3 x ptr], ptr, [2 x ptr], i32, i64, i32, ptr }
%struct.AVChannelLayout = type { i32, i32, %union.anon.1, ptr }
%union.anon.1 = type { i64 }

; Function Attrs: nounwind uwtable
define internal void @biquad_svf_s32(ptr noundef %0, ptr noundef %1, ptr noundef %2, i32 noundef %3, ptr noundef %4, ptr noundef %5, i32 noundef %6) #1 {
  %8 = alloca ptr, align 8
  %9 = alloca ptr, align 8
  %10 = alloca ptr, align 8
  %11 = alloca i32, align 4
  %12 = alloca ptr, align 8
  %13 = alloca ptr, align 8
  %14 = alloca i32, align 4
  %15 = alloca ptr, align 8
  %16 = alloca ptr, align 8
  %17 = alloca ptr, align 8
  %18 = alloca ptr, align 8
  %19 = alloca ptr, align 8
  %20 = alloca double, align 8
  %21 = alloca double, align 8
  %22 = alloca double, align 8
  %23 = alloca double, align 8
  %24 = alloca double, align 8
  %25 = alloca double, align 8
  %26 = alloca double, align 8
  %27 = alloca double, align 8
  %28 = alloca double, align 8
  %29 = alloca double, align 8
  %30 = alloca double, align 8
  %31 = alloca double, align 8
  %32 = alloca double, align 8
  %33 = alloca i32, align 4
  store ptr %0, ptr %8, align 8, !tbaa !22
  store ptr %1, ptr %9, align 8, !tbaa !36
  store ptr %2, ptr %10, align 8, !tbaa !36
  store i32 %3, ptr %11, align 4, !tbaa !31
  store ptr %4, ptr %12, align 8, !tbaa !36
  store ptr %5, ptr %13, align 8, !tbaa !82
  store i32 %6, ptr %14, align 4, !tbaa !31
  call void @llvm.lifetime.start.p0(i64 8, ptr %15) #11
  %34 = load ptr, ptr %9, align 8, !tbaa !36
  store ptr %34, ptr %15, align 8, !tbaa !82
  call void @llvm.lifetime.start.p0(i64 8, ptr %16) #11
  %35 = load ptr, ptr %10, align 8, !tbaa !36
  store ptr %35, ptr %16, align 8, !tbaa !82
  call void @llvm.lifetime.start.p0(i64 8, ptr %17) #11
  %36 = load ptr, ptr %12, align 8, !tbaa !36
  store ptr %36, ptr %17, align 8, !tbaa !91
  call void @llvm.lifetime.start.p0(i64 8, ptr %18) #11
  %37 = load ptr, ptr %8, align 8, !tbaa !22
  %38 = getelementptr inbounds nuw %struct.BiquadsContext, ptr %37, i32 0, i32 17
  %39 = getelementptr inbounds [3 x double], ptr %38, i64 0, i64 0
  store ptr %39, ptr %18, align 8, !tbaa !91
  call void @llvm.lifetime.start.p0(i64 8, ptr %19) #11
  %40 = load ptr, ptr %8, align 8, !tbaa !22
  %41 = getelementptr inbounds nuw %struct.BiquadsContext, ptr %40, i32 0, i32 18
  %42 = getelementptr inbounds [3 x double], ptr %41, i64 0, i64 0
  store ptr %42, ptr %19, align 8, !tbaa !91
  call void @llvm.lifetime.start.p0(i64 8, ptr %20) #11
  %43 = load ptr, ptr %18, align 8, !tbaa !91
  %44 = getelementptr inbounds double, ptr %43, i64 1
  %45 = load double, ptr %44, align 8, !tbaa !55
  store double %45, ptr %20, align 8, !tbaa !55
  call void @llvm.lifetime.start.p0(i64 8, ptr %21) #11
  %46 = load ptr, ptr %18, align 8, !tbaa !91
  %47 = getelementptr inbounds double, ptr %46, i64 2
  %48 = load double, ptr %47, align 8, !tbaa !55
  store double %48, ptr %21, align 8, !tbaa !55
  call void @llvm.lifetime.start.p0(i64 8, ptr %22) #11
  %49 = load ptr, ptr %19, align 8, !tbaa !91
  %50 = getelementptr inbounds double, ptr %49, i64 0
  %51 = load double, ptr %50, align 8, !tbaa !55
  store double %51, ptr %22, align 8, !tbaa !55
  call void @llvm.lifetime.start.p0(i64 8, ptr %23) #11
  %52 = load ptr, ptr %19, align 8, !tbaa !91
  %53 = getelementptr inbounds double, ptr %52, i64 1
  %54 = load double, ptr %53, align 8, !tbaa !55
  store double %54, ptr %23, align 8, !tbaa !55
  call void @llvm.lifetime.start.p0(i64 8, ptr %24) #11
  %55 = load ptr, ptr %19, align 8, !tbaa !91
  %56 = getelementptr inbounds double, ptr %55, i64 2
  %57 = load double, ptr %56, align 8, !tbaa !55
  store double %57, ptr %24, align 8, !tbaa !55
  call void @llvm.lifetime.start.p0(i64 8, ptr %25) #11
  %58 = load ptr, ptr %17, align 8, !tbaa !91
  %59 = getelementptr inbounds double, ptr %58, i64 0
  %60 = load double, ptr %59, align 8, !tbaa !55
  store double %60, ptr %25, align 8, !tbaa !55
  call void @llvm.lifetime.start.p0(i64 8, ptr %26) #11
  %61 = load ptr, ptr %17, align 8, !tbaa !91
  %62 = getelementptr inbounds double, ptr %61, i64 1
  %63 = load double, ptr %62, align 8, !tbaa !55
  store double %63, ptr %26, align 8, !tbaa !55
  call void @llvm.lifetime.start.p0(i64 8, ptr %27) #11
  %64 = load ptr, ptr %8, align 8, !tbaa !22
  %65 = getelementptr inbounds nuw %struct.BiquadsContext, ptr %64, i32 0, i32 12
  %66 = load double, ptr %65, align 8, !tbaa !87
  store double %66, ptr %27, align 8, !tbaa !55
  call void @llvm.lifetime.start.p0(i64 8, ptr %28) #11
  %67 = load double, ptr %27, align 8, !tbaa !55
  %68 = fsub nsz double 1.000000e+00, %67
  store double %68, ptr %28, align 8, !tbaa !55
  call void @llvm.lifetime.start.p0(i64 8, ptr %29) #11
  call void @llvm.lifetime.start.p0(i64 8, ptr %30) #11
  call void @llvm.lifetime.start.p0(i64 8, ptr %31) #11
  call void @llvm.lifetime.start.p0(i64 8, ptr %32) #11
  call void @llvm.lifetime.start.p0(i64 4, ptr %33) #11
  store i32 0, ptr %33, align 4, !tbaa !31
  br label %69

69:                                               ; preds = %148, %7
  %70 = load i32, ptr %33, align 4, !tbaa !31
  %71 = load i32, ptr %11, align 4, !tbaa !31
  %72 = icmp slt i32 %70, %71
  br i1 %72, label %74, label %73

73:                                               ; preds = %69
  call void @llvm.lifetime.end.p0(i64 4, ptr %33) #11
  br label %151

74:                                               ; preds = %69
  %75 = load ptr, ptr %15, align 8, !tbaa !82
  %76 = load i32, ptr %33, align 4, !tbaa !31
  %77 = sext i32 %76 to i64
  %78 = getelementptr inbounds i32, ptr %75, i64 %77
  %79 = load i32, ptr %78, align 4, !tbaa !31
  %80 = sitofp i32 %79 to double
  store double %80, ptr %29, align 8, !tbaa !55
  %81 = load double, ptr %24, align 8, !tbaa !55
  %82 = load double, ptr %29, align 8, !tbaa !55
  %83 = load double, ptr %25, align 8, !tbaa !55
  %84 = call nsz double @llvm.fmuladd.f64(double %81, double %82, double %83)
  store double %84, ptr %30, align 8, !tbaa !55
  %85 = load double, ptr %22, align 8, !tbaa !55
  %86 = load double, ptr %29, align 8, !tbaa !55
  %87 = load double, ptr %20, align 8, !tbaa !55
  %88 = load double, ptr %25, align 8, !tbaa !55
  %89 = fmul nsz double %87, %88
  %90 = call nsz double @llvm.fmuladd.f64(double %85, double %86, double %89)
  %91 = load double, ptr %26, align 8, !tbaa !55
  %92 = fadd nsz double %90, %91
  store double %92, ptr %31, align 8, !tbaa !55
  %93 = load double, ptr %23, align 8, !tbaa !55
  %94 = load double, ptr %29, align 8, !tbaa !55
  %95 = load double, ptr %21, align 8, !tbaa !55
  %96 = load double, ptr %25, align 8, !tbaa !55
  %97 = fmul nsz double %95, %96
  %98 = call nsz double @llvm.fmuladd.f64(double %93, double %94, double %97)
  store double %98, ptr %32, align 8, !tbaa !55
  %99 = load double, ptr %31, align 8, !tbaa !55
  store double %99, ptr %25, align 8, !tbaa !55
  %100 = load double, ptr %32, align 8, !tbaa !55
  store double %100, ptr %26, align 8, !tbaa !55
  %101 = load double, ptr %30, align 8, !tbaa !55
  %102 = load double, ptr %27, align 8, !tbaa !55
  %103 = load double, ptr %29, align 8, !tbaa !55
  %104 = load double, ptr %28, align 8, !tbaa !55
  %105 = fmul nsz double %103, %104
  %106 = call nsz double @llvm.fmuladd.f64(double %101, double %102, double %105)
  store double %106, ptr %30, align 8, !tbaa !55
  %107 = load i32, ptr %14, align 4, !tbaa !31
  %108 = icmp ne i32 %107, 0
  br i1 %108, label %109, label %116

109:                                              ; preds = %74
  %110 = load double, ptr %29, align 8, !tbaa !55
  %111 = fptosi double %110 to i32
  %112 = load ptr, ptr %16, align 8, !tbaa !82
  %113 = load i32, ptr %33, align 4, !tbaa !31
  %114 = sext i32 %113 to i64
  %115 = getelementptr inbounds i32, ptr %112, i64 %114
  store i32 %111, ptr %115, align 4, !tbaa !31
  br label %147

116:                                              ; preds = %74
  %117 = load double, ptr %30, align 8, !tbaa !55
  %118 = fcmp nsz olt double %117, 0xC1E0000000000000
  br i1 %118, label %119, label %127

119:                                              ; preds = %116
  %120 = load ptr, ptr %13, align 8, !tbaa !82
  %121 = load i32, ptr %120, align 4, !tbaa !31
  %122 = add nsw i32 %121, 1
  store i32 %122, ptr %120, align 4, !tbaa !31
  %123 = load ptr, ptr %16, align 8, !tbaa !82
  %124 = load i32, ptr %33, align 4, !tbaa !31
  %125 = sext i32 %124 to i64
  %126 = getelementptr inbounds i32, ptr %123, i64 %125
  store i32 -2147483648, ptr %126, align 4, !tbaa !31
  br label %146

127:                                              ; preds = %116
  %128 = load double, ptr %30, align 8, !tbaa !55
  %129 = fcmp nsz ogt double %128, 0x41DFFFFFFFC00000
  br i1 %129, label %130, label %138

130:                                              ; preds = %127
  %131 = load ptr, ptr %13, align 8, !tbaa !82
  %132 = load i32, ptr %131, align 4, !tbaa !31
  %133 = add nsw i32 %132, 1
  store i32 %133, ptr %131, align 4, !tbaa !31
  %134 = load ptr, ptr %16, align 8, !tbaa !82
  %135 = load i32, ptr %33, align 4, !tbaa !31
  %136 = sext i32 %135 to i64
  %137 = getelementptr inbounds i32, ptr %134, i64 %136
  store i32 2147483647, ptr %137, align 4, !tbaa !31
  br label %145

138:                                              ; preds = %127
  %139 = load double, ptr %30, align 8, !tbaa !55
  %140 = fptosi double %139 to i32
  %141 = load ptr, ptr %16, align 8, !tbaa !82
  %142 = load i32, ptr %33, align 4, !tbaa !31
  %143 = sext i32 %142 to i64
  %144 = getelementptr inbounds i32, ptr %141, i64 %143
  store i32 %140, ptr %144, align 4, !tbaa !31
  br label %145

145:                                              ; preds = %138, %130
  br label %146

146:                                              ; preds = %145, %119
  br label %147

147:                                              ; preds = %146, %109
  br label %148

148:                                              ; preds = %147
  %149 = load i32, ptr %33, align 4, !tbaa !31
  %150 = add nsw i32 %149, 1
  store i32 %150, ptr %33, align 4, !tbaa !31
  br label %69, !llvm.loop !112

151:                                              ; preds = %73
  %152 = load double, ptr %25, align 8, !tbaa !55
  %153 = load ptr, ptr %17, align 8, !tbaa !91
  %154 = getelementptr inbounds double, ptr %153, i64 0
  store double %152, ptr %154, align 8, !tbaa !55
  %155 = load double, ptr %26, align 8, !tbaa !55
  %156 = load ptr, ptr %17, align 8, !tbaa !91
  %157 = getelementptr inbounds double, ptr %156, i64 1
  store double %155, ptr %157, align 8, !tbaa !55
  call void @llvm.lifetime.end.p0(i64 8, ptr %32) #11
  call void @llvm.lifetime.end.p0(i64 8, ptr %31) #11
  call void @llvm.lifetime.end.p0(i64 8, ptr %30) #11
  call void @llvm.lifetime.end.p0(i64 8, ptr %29) #11
  call void @llvm.lifetime.end.p0(i64 8, ptr %28) #11
  call void @llvm.lifetime.end.p0(i64 8, ptr %27) #11
  call void @llvm.lifetime.end.p0(i64 8, ptr %26) #11
  call void @llvm.lifetime.end.p0(i64 8, ptr %25) #11
  call void @llvm.lifetime.end.p0(i64 8, ptr %24) #11
  call void @llvm.lifetime.end.p0(i64 8, ptr %23) #11
  call void @llvm.lifetime.end.p0(i64 8, ptr %22) #11
  call void @llvm.lifetime.end.p0(i64 8, ptr %21) #11
  call void @llvm.lifetime.end.p0(i64 8, ptr %20) #11
  call void @llvm.lifetime.end.p0(i64 8, ptr %19) #11
  call void @llvm.lifetime.end.p0(i64 8, ptr %18) #11
  call void @llvm.lifetime.end.p0(i64 8, ptr %17) #11
  call void @llvm.lifetime.end.p0(i64 8, ptr %16) #11
  call void @llvm.lifetime.end.p0(i64 8, ptr %15) #11
  ret void
}