; Function Attrs: nofree norecurse nosync nounwind memory(argmem: readwrite) uwtable
define internal void @biquad_svf_s32(ptr noundef readonly captures(none) %0, ptr noundef readonly captures(none) %1, ptr noundef writeonly captures(none) %2, i32 noundef %3, ptr noundef captures(none) %4, ptr noundef captures(none) %5, i32 noundef %6) #7 {
  %8 = getelementptr inbounds nuw i8, ptr %0, i64 136
  %9 = getelementptr inbounds nuw i8, ptr %0, i64 120
  %10 = load double, ptr %9, align 8, !tbaa !53
  %11 = getelementptr inbounds nuw i8, ptr %0, i64 128
  %12 = load double, ptr %11, align 8, !tbaa !53
  %13 = load double, ptr %8, align 8, !tbaa !53
  %14 = getelementptr inbounds nuw i8, ptr %0, i64 144
  %15 = load double, ptr %14, align 8, !tbaa !53
  %16 = getelementptr inbounds nuw i8, ptr %0, i64 152
  %17 = load double, ptr %16, align 8, !tbaa !53
  %18 = load double, ptr %4, align 8, !tbaa !53
  %19 = getelementptr inbounds nuw i8, ptr %4, i64 8
  %20 = load double, ptr %19, align 8, !tbaa !53
  %21 = getelementptr inbounds nuw i8, ptr %0, i64 64
  %22 = load double, ptr %21, align 8, !tbaa !75
  %23 = fsub nsz double 1.000000e+00, %22
  %24 = icmp sgt i32 %3, 0
  br i1 %24, label %.lr.ph, label %._crit_edge

.lr.ph:                                           ; preds = %7
  %.not = icmp eq i32 %6, 0
  %wide.trip.count71 = zext nneg i32 %3 to i64
  br i1 %.not, label %.lr.ph.split.us, label %.lr.ph.split

.lr.ph.split.us:                                  ; preds = %.lr.ph, %47
  %indvars.iv68 = phi i64 [ %indvars.iv.next69, %47 ], [ 0, %.lr.ph ]
  %.05559.us = phi double [ %31, %47 ], [ %18, %.lr.ph ]
  %.05658.us = phi double [ %33, %47 ], [ %20, %.lr.ph ]
  %25 = getelementptr inbounds nuw i32, ptr %1, i64 %indvars.iv68
  %26 = load i32, ptr %25, align 4, !tbaa !30
  %27 = sitofp i32 %26 to double
  %28 = tail call nsz double @llvm.fmuladd.f64(double %17, double %27, double %.05559.us)
  %29 = fmul nsz double %10, %.05559.us
  %30 = tail call nsz double @llvm.fmuladd.f64(double %13, double %27, double %29)
  %31 = fadd nsz double %.05658.us, %30
  %32 = fmul nsz double %12, %.05559.us
  %33 = tail call nsz double @llvm.fmuladd.f64(double %15, double %27, double %32)
  %34 = fmul nsz double %23, %27
  %35 = tail call nsz double @llvm.fmuladd.f64(double %28, double %22, double %34)
  %36 = fcmp nsz olt double %35, 0xC1E0000000000000
  br i1 %36, label %44, label %37

37:                                               ; preds = %.lr.ph.split.us
  %38 = fcmp nsz ogt double %35, 0x41DFFFFFFFC00000
  br i1 %38, label %41, label %39

39:                                               ; preds = %37
  %40 = fptosi double %35 to i32
  br label %47

41:                                               ; preds = %37
  %42 = load i32, ptr %5, align 4, !tbaa !30
  %43 = add nsw i32 %42, 1
  store i32 %43, ptr %5, align 4, !tbaa !30
  br label %47

44:                                               ; preds = %.lr.ph.split.us
  %45 = load i32, ptr %5, align 4, !tbaa !30
  %46 = add nsw i32 %45, 1
  store i32 %46, ptr %5, align 4, !tbaa !30
  br label %47

47:                                               ; preds = %44, %41, %39
  %.sink = phi i32 [ -2147483648, %44 ], [ 2147483647, %41 ], [ %40, %39 ]
  %48 = getelementptr inbounds nuw i32, ptr %2, i64 %indvars.iv68
  store i32 %.sink, ptr %48, align 4, !tbaa !30
  %indvars.iv.next69 = add nuw nsw i64 %indvars.iv68, 1
  %exitcond72.not = icmp eq i64 %indvars.iv.next69, %wide.trip.count71
  br i1 %exitcond72.not, label %._crit_edge, label %.lr.ph.split.us, !llvm.loop !99

._crit_edge:                                      ; preds = %.lr.ph.split, %47, %7
  %.056.lcssa = phi double [ %20, %7 ], [ %33, %47 ], [ %56, %.lr.ph.split ]
  %.055.lcssa = phi double [ %18, %7 ], [ %31, %47 ], [ %54, %.lr.ph.split ]
  store double %.055.lcssa, ptr %4, align 8, !tbaa !53
  store double %.056.lcssa, ptr %19, align 8, !tbaa !53
  ret void

.lr.ph.split:                                     ; preds = %.lr.ph, %.lr.ph.split
  %indvars.iv = phi i64 [ %indvars.iv.next, %.lr.ph.split ], [ 0, %.lr.ph ]
  %.05559 = phi double [ %54, %.lr.ph.split ], [ %18, %.lr.ph ]
  %.05658 = phi double [ %56, %.lr.ph.split ], [ %20, %.lr.ph ]
  %49 = getelementptr inbounds nuw i32, ptr %1, i64 %indvars.iv
  %50 = load i32, ptr %49, align 4, !tbaa !30
  %51 = sitofp i32 %50 to double
  %52 = fmul nsz double %10, %.05559
  %53 = tail call nsz double @llvm.fmuladd.f64(double %13, double %51, double %52)
  %54 = fadd nsz double %.05658, %53
  %55 = fmul nsz double %12, %.05559
  %56 = tail call nsz double @llvm.fmuladd.f64(double %15, double %51, double %55)
  %57 = getelementptr inbounds nuw i32, ptr %2, i64 %indvars.iv
  store i32 %50, ptr %57, align 4, !tbaa !30
  %indvars.iv.next = add nuw nsw i64 %indvars.iv, 1
  %exitcond.not = icmp eq i64 %indvars.iv.next, %wide.trip.count71
  br i1 %exitcond.not, label %._crit_edge, label %.lr.ph.split, !llvm.loop !99
}